target datalayout = "e-m:e-p270:32:32-p271:32:32-p272:64:64-i64:64-i128:128-f80:128-n8:16:32:64-S128"
target triple = "x86_64-pc-linux-gnu"

@.str.145 = private unnamed_addr constant [5 x i8] c"U|is\00", align 1
@PyExc_RuntimeError = external global ptr, align 8
@.str.146 = private unnamed_addr constant [33 x i8] c"encode error: pos=%zu, reason=%s\00", align 1
@PyExc_ValueError = external global ptr, align 8
@.str.147 = private unnamed_addr constant [26 x i8] c"unsupported error handler\00", align 1
@.str.148 = private unnamed_addr constant [19 x i8] c"unknown error code\00", align 1

; Function Attrs: nounwind uwtable
define internal ptr @encode_locale_ex(ptr noundef %0, ptr noundef %1) #0 {
  %3 = alloca ptr, align 8
  %4 = alloca ptr, align 8
  %5 = alloca ptr, align 8
  %6 = alloca ptr, align 8
  %7 = alloca i32, align 4
  %8 = alloca ptr, align 8
  %9 = alloca ptr, align 8
  %10 = alloca ptr, align 8
  %11 = alloca i32, align 4
  %12 = alloca i32, align 4
  %13 = alloca ptr, align 8
  %14 = alloca i64, align 8
  %15 = alloca ptr, align 8
  %16 = alloca i32, align 4
  store ptr %0, ptr %4, align 8, !tbaa !3
  store ptr %1, ptr %5, align 8, !tbaa !3
  call void @llvm.lifetime.start.p0(i64 8, ptr %6) #10
  call void @llvm.lifetime.start.p0(i64 4, ptr %7) #10
  store i32 0, ptr %7, align 4, !tbaa !26
  call void @llvm.lifetime.start.p0(i64 8, ptr %8) #10
  call void @llvm.lifetime.start.p0(i64 8, ptr %9) #10
  store ptr null, ptr %9, align 8, !tbaa !3
  call void @llvm.lifetime.start.p0(i64 8, ptr %10) #10
  store ptr null, ptr %10, align 8, !tbaa !46
  %17 = load ptr, ptr %5, align 8, !tbaa !3
  %18 = call i32 (ptr, ptr, ...) @PyArg_ParseTuple(ptr noundef %17, ptr noundef @.str.145, ptr noundef %6, ptr noundef %7, ptr noundef %10)
  %19 = icmp ne i32 %18, 0
  br i1 %19, label %21, label %20

20:                                               ; preds = %2
  store ptr null, ptr %3, align 8
  store i32 1, ptr %11, align 4
  br label %53

21:                                               ; preds = %2
  %22 = load ptr, ptr %6, align 8, !tbaa !3
  %23 = call ptr @PyUnicode_AsWideCharString(ptr noundef %22, ptr noundef null)
  store ptr %23, ptr %8, align 8, !tbaa !44
  %24 = load ptr, ptr %8, align 8, !tbaa !44
  %25 = icmp eq ptr %24, null
  br i1 %25, label %26, label %27

26:                                               ; preds = %21
  store ptr null, ptr %3, align 8
  store i32 1, ptr %11, align 4
  br label %53

27:                                               ; preds = %21
  call void @llvm.lifetime.start.p0(i64 4, ptr %12) #10
  %28 = load ptr, ptr %10, align 8, !tbaa !46
  %29 = call i32 @_Py_GetErrorHandler(ptr noundef %28)
  store i32 %29, ptr %12, align 4, !tbaa !26
  call void @llvm.lifetime.start.p0(i64 8, ptr %13) #10
  store ptr null, ptr %13, align 8, !tbaa !46
  call void @llvm.lifetime.start.p0(i64 8, ptr %14) #10
  call void @llvm.lifetime.start.p0(i64 8, ptr %15) #10
  store ptr null, ptr %15, align 8, !tbaa !46
  call void @llvm.lifetime.start.p0(i64 4, ptr %16) #10
  %30 = load ptr, ptr %8, align 8, !tbaa !44
  %31 = load i32, ptr %7, align 4, !tbaa !26
  %32 = load i32, ptr %12, align 4, !tbaa !26
  %33 = call i32 @_Py_EncodeLocaleEx(ptr noundef %30, ptr noundef %13, ptr noundef %14, ptr noundef %15, i32 noundef %31, i32 noundef %32)
  store i32 %33, ptr %16, align 4, !tbaa !26
  %34 = load ptr, ptr %8, align 8, !tbaa !44
  call void @PyMem_Free(ptr noundef %34)
  %35 = load i32, ptr %16, align 4, !tbaa !26
  switch i32 %35, label %49 [
    i32 0, label %36
    i32 -1, label %40
    i32 -2, label %42
    i32 -3, label %47
  ]

36:                                               ; preds = %27
  %37 = load ptr, ptr %13, align 8, !tbaa !46
  %38 = call ptr @PyBytes_FromString(ptr noundef %37)
  store ptr %38, ptr %9, align 8, !tbaa !3
  %39 = load ptr, ptr %13, align 8, !tbaa !46
  call void @PyMem_RawFree(ptr noundef %39)
  br label %51

40:                                               ; preds = %27
  %41 = call ptr @PyErr_NoMemory()
  br label %51

42:                                               ; preds = %27
  %43 = load ptr, ptr @PyExc_RuntimeError, align 8, !tbaa !3
  %44 = load i64, ptr %14, align 8, !tbaa !27
  %45 = load ptr, ptr %15, align 8, !tbaa !46
  %46 = call ptr (ptr, ptr, ...) @PyErr_Format(ptr noundef %43, ptr noundef @.str.146, i64 noundef %44, ptr noundef %45)
  br label %51

47:                                               ; preds = %27
  %48 = load ptr, ptr @PyExc_ValueError, align 8, !tbaa !3
  call void @PyErr_SetString(ptr noundef %48, ptr noundef @.str.147)
  br label %51

49:                                               ; preds = %27
  %50 = load ptr, ptr @PyExc_ValueError, align 8, !tbaa !3
  call void @PyErr_SetString(ptr noundef %50, ptr noundef @.str.148)
  br label %51

51:                                               ; preds = %49, %47, %42, %40, %36
  %52 = load ptr, ptr %9, align 8, !tbaa !3
  store ptr %52, ptr %3, align 8
  store i32 1, ptr %11, align 4
  call void @llvm.lifetime.end.p0(i64 4, ptr %16) #10
  call void @llvm.lifetime.end.p0(i64 8, ptr %15) #10
  call void @llvm.lifetime.end.p0(i64 8, ptr %14) #10
  call void @llvm.lifetime.end.p0(i64 8, ptr %13) #10
  call void @llvm.lifetime.end.p0(i64 4, ptr %12) #10
  br label %53

53:                                               ; preds = %51, %26, %20
  call void @llvm.lifetime.end.p0(i64 8, ptr %10) #10
  call void @llvm.lifetime.end.p0(i64 8, ptr %9) #10
  call void @llvm.lifetime.end.p0(i64 8, ptr %8) #10
  call void @llvm.lifetime.end.p0(i64 4, ptr %7) #10
  call void @llvm.lifetime.end.p0(i64 8, ptr %6) #10
  %54 = load ptr, ptr %3, align 8
  ret ptr %54
}