; Function Attrs: nounwind uwtable
define internal ptr @encode_locale_ex(ptr readnone captures(none) %0, ptr noundef %1) #0 {
  %3 = alloca ptr, align 8
  %4 = alloca i32, align 4
  %5 = alloca ptr, align 8
  %6 = alloca ptr, align 8
  %7 = alloca i64, align 8
  %8 = alloca ptr, align 8
  call void @llvm.lifetime.start.p0(i64 8, ptr nonnull %3) #11
  call void @llvm.lifetime.start.p0(i64 4, ptr nonnull %4) #11
  store i32 0, ptr %4, align 4, !tbaa !25
  call void @llvm.lifetime.start.p0(i64 8, ptr nonnull %5) #11
  store ptr null, ptr %5, align 8, !tbaa !41
  %9 = call i32 (ptr, ptr, ...) @PyArg_ParseTuple(ptr noundef %1, ptr noundef nonnull @.str.145, ptr noundef nonnull %3, ptr noundef nonnull %4, ptr noundef nonnull %5) #11
  %.not = icmp eq i32 %9, 0
  br i1 %.not, label %35, label %10

10:                                               ; preds = %2
  %11 = load ptr, ptr %3, align 8, !tbaa !9
  %12 = call ptr @PyUnicode_AsWideCharString(ptr noundef %11, ptr noundef null) #11
  %13 = icmp eq ptr %12, null
  br i1 %13, label %35, label %14

14:                                               ; preds = %10
  %15 = load ptr, ptr %5, align 8, !tbaa !41
  %16 = call i32 @_Py_GetErrorHandler(ptr noundef %15) #11
  call void @llvm.lifetime.start.p0(i64 8, ptr nonnull %6) #11
  store ptr null, ptr %6, align 8, !tbaa !41
  call void @llvm.lifetime.start.p0(i64 8, ptr nonnull %7) #11
  call void @llvm.lifetime.start.p0(i64 8, ptr nonnull %8) #11
  store ptr null, ptr %8, align 8, !tbaa !41
  %17 = load i32, ptr %4, align 4, !tbaa !25
  %18 = call i32 @_Py_EncodeLocaleEx(ptr noundef nonnull %12, ptr noundef nonnull %6, ptr noundef nonnull %7, ptr noundef nonnull %8, i32 noundef %17, i32 noundef %16) #11
  call void @PyMem_Free(ptr noundef nonnull %12) #11
  switch i32 %18, label %32 [
    i32 0, label %19
    i32 -1, label %23
    i32 -2, label %25
    i32 -3, label %30
  ]

19:                                               ; preds = %14
  %20 = load ptr, ptr %6, align 8, !tbaa !41
  %21 = call ptr @PyBytes_FromString(ptr noundef %20) #11
  %22 = load ptr, ptr %6, align 8, !tbaa !41
  call void @PyMem_RawFree(ptr noundef %22) #11
  br label %34

23:                                               ; preds = %14
  %24 = call ptr @PyErr_NoMemory() #11
  br label %34

25:                                               ; preds = %14
  %26 = load ptr, ptr @PyExc_RuntimeError, align 8, !tbaa !9
  %27 = load i64, ptr %7, align 8, !tbaa !26
  %28 = load ptr, ptr %8, align 8, !tbaa !41
  %29 = call ptr (ptr, ptr, ...) @PyErr_Format(ptr noundef %26, ptr noundef nonnull @.str.146, i64 noundef %27, ptr noundef %28) #11
  br label %34

30:                                               ; preds = %14
  %31 = load ptr, ptr @PyExc_ValueError, align 8, !tbaa !9
  call void @PyErr_SetString(ptr noundef %31, ptr noundef nonnull @.str.147) #11
  br label %34

32:                                               ; preds = %14
  %33 = load ptr, ptr @PyExc_ValueError, align 8, !tbaa !9
  call void @PyErr_SetString(ptr noundef %33, ptr noundef nonnull @.str.148) #11
  br label %34

34:                                               ; preds = %32, %30, %25, %23, %19
  %.07 = phi ptr [ null, %32 ], [ null, %30 ], [ null, %25 ], [ null, %23 ], [ %21, %19 ]
  call void @llvm.lifetime.end.p0(i64 8, ptr nonnull %8) #11
  call void @llvm.lifetime.end.p0(i64 8, ptr nonnull %7) #11
  call void @llvm.lifetime.end.p0(i64 8, ptr nonnull %6) #11
  br label %35

35:                                               ; preds = %10, %2, %34
  %.0 = phi ptr [ %.07, %34 ], [ null, %2 ], [ null, %10 ]
  call void @llvm.lifetime.end.p0(i64 8, ptr nonnull %5) #11
  call void @llvm.lifetime.end.p0(i64 4, ptr nonnull %4) #11
  call void @llvm.lifetime.end.p0(i64 8, ptr nonnull %3) #11
  ret ptr %.0
}